target datalayout = "e-m:e-p270:32:32-p271:32:32-p272:64:64-i64:64-i128:128-f80:128-n8:16:32:64-S128"
target triple = "x86_64-pc-linux-gnu"

%struct.mspack_system = type { ptr, ptr, ptr, ptr, ptr, ptr, ptr, ptr, ptr, ptr, ptr }
%struct.msoab_decompressor_p = type { %struct.msoab_decompressor, ptr, i32 }
%struct.msoab_decompressor = type { ptr, ptr, ptr }

@mspack_default_system = external global ptr, align 8

; Function Attrs: nounwind uwtable
define ptr @mspack_create_oab_decompressor(ptr noundef %0) #0 {
  %2 = alloca ptr, align 8
  %3 = alloca ptr, align 8
  %4 = alloca ptr, align 8
  %5 = alloca i32, align 4
  store ptr %0, ptr %3, align 8, !tbaa !3
  call void @llvm.lifetime.start.p0(i64 8, ptr %4) #5
  store ptr null, ptr %4, align 8, !tbaa !8
  %6 = load ptr, ptr %3, align 8, !tbaa !3
  %7 = icmp ne ptr %6, null
  br i1 %7, label %10, label %8

8:                                                ; preds = %1
  %9 = load ptr, ptr @mspack_default_system, align 8, !tbaa !3
  store ptr %9, ptr %3, align 8, !tbaa !3
  br label %10

10:                                               ; preds = %8, %1
  %11 = load ptr, ptr %3, align 8, !tbaa !3
  %12 = call i32 @mspack_valid_system(ptr noundef %11)
  %13 = icmp ne i32 %12, 0
  br i1 %13, label %15, label %14

14:                                               ; preds = %10
  store ptr null, ptr %2, align 8
  store i32 1, ptr %5, align 4
  br label %39

15:                                               ; preds = %10
  %16 = load ptr, ptr %3, align 8, !tbaa !3
  %17 = getelementptr inbounds nuw %struct.mspack_system, ptr %16, i32 0, i32 7
  %18 = load ptr, ptr %17, align 8, !tbaa !10
  %19 = load ptr, ptr %3, align 8, !tbaa !3
  %20 = call ptr %18(ptr noundef %19, i64 noundef 40)
  store ptr %20, ptr %4, align 8, !tbaa !8
  %21 = icmp ne ptr %20, null
  br i1 %21, label %22, label %37

22:                                               ; preds = %15
  %23 = load ptr, ptr %4, align 8, !tbaa !8
  %24 = getelementptr inbounds nuw %struct.msoab_decompressor_p, ptr %23, i32 0, i32 0
  %25 = getelementptr inbounds nuw %struct.msoab_decompressor, ptr %24, i32 0, i32 0
  store ptr @oabd_decompress, ptr %25, align 8, !tbaa !12
  %26 = load ptr, ptr %4, align 8, !tbaa !8
  %27 = getelementptr inbounds nuw %struct.msoab_decompressor_p, ptr %26, i32 0, i32 0
  %28 = getelementptr inbounds nuw %struct.msoab_decompressor, ptr %27, i32 0, i32 1
  store ptr @oabd_decompress_incremental, ptr %28, align 8, !tbaa !16
  %29 = load ptr, ptr %4, align 8, !tbaa !8
  %30 = getelementptr inbounds nuw %struct.msoab_decompressor_p, ptr %29, i32 0, i32 0
  %31 = getelementptr inbounds nuw %struct.msoab_decompressor, ptr %30, i32 0, i32 2
  store ptr @oabd_param, ptr %31, align 8, !tbaa !17
  %32 = load ptr, ptr %3, align 8, !tbaa !3
  %33 = load ptr, ptr %4, align 8, !tbaa !8
  %34 = getelementptr inbounds nuw %struct.msoab_decompressor_p, ptr %33, i32 0, i32 1
  store ptr %32, ptr %34, align 8, !tbaa !18
  %35 = load ptr, ptr %4, align 8, !tbaa !8
  %36 = getelementptr inbounds nuw %struct.msoab_decompressor_p, ptr %35, i32 0, i32 2
  store i32 4096, ptr %36, align 8, !tbaa !19
  br label %37

37:                                               ; preds = %22, %15
  %38 = load ptr, ptr %4, align 8, !tbaa !8
  store ptr %38, ptr %2, align 8
  store i32 1, ptr %5, align 4
  br label %39

39:                                               ; preds = %37, %14
  call void @llvm.lifetime.end.p0(i64 8, ptr %4) #5
  %40 = load ptr, ptr %2, align 8
  ret ptr %40
}