; Function Attrs: nounwind uwtable
define ptr @mspack_create_oab_decompressor(ptr noundef %0) local_unnamed_addr #0 {
  %.not = icmp eq ptr %0, null
  %2 = load ptr, ptr @mspack_default_system, align 8
  %spec.select = select i1 %.not, ptr %2, ptr %0
  %3 = tail call i32 @mspack_valid_system(ptr noundef %spec.select) #6
  %.not15 = icmp eq i32 %3, 0
  br i1 %.not15, label %13, label %4

4:                                                ; preds = %1
  %5 = getelementptr inbounds nuw i8, ptr %spec.select, i64 56
  %6 = load ptr, ptr %5, align 8, !tbaa !3
  %7 = tail call ptr %6(ptr noundef %spec.select, i64 noundef 40) #6
  %.not16 = icmp eq ptr %7, null
  br i1 %.not16, label %13, label %8

8:                                                ; preds = %4
  store ptr @oabd_decompress, ptr %7, align 8, !tbaa !8
  %9 = getelementptr inbounds nuw i8, ptr %7, i64 8
  store ptr @oabd_decompress_incremental, ptr %9, align 8, !tbaa !13
  %10 = getelementptr inbounds nuw i8, ptr %7, i64 16
  store ptr @oabd_param, ptr %10, align 8, !tbaa !14
  %11 = getelementptr inbounds nuw i8, ptr %7, i64 24
  store ptr %spec.select, ptr %11, align 8, !tbaa !15
  %12 = getelementptr inbounds nuw i8, ptr %7, i64 32
  store i32 4096, ptr %12, align 8, !tbaa !16
  br label %13

13:                                               ; preds = %4, %8, %1
  %.012 = phi ptr [ null, %1 ], [ %7, %8 ], [ null, %4 ]
  ret ptr %.012
}